ARM GAS  C:\Users\avpas\AppData\Local\Temp\ccj5mFQy.s 			page 1


   1              		.cpu cortex-m3
   2              		.eabi_attribute 20, 1
   3              		.eabi_attribute 21, 1
   4              		.eabi_attribute 23, 3
   5              		.eabi_attribute 24, 1
   6              		.eabi_attribute 25, 1
   7              		.eabi_attribute 26, 1
   8              		.eabi_attribute 30, 1
   9              		.eabi_attribute 34, 1
  10              		.eabi_attribute 18, 4
  11              		.file	"lcd.c"
  12              		.text
  13              	.Ltext0:
  14              		.cfi_sections	.debug_frame
  15              		.section	.text.LCD_Delay,"ax",%progbits
  16              		.align	1
  17              		.global	LCD_Delay
  18              		.arch armv7-m
  19              		.syntax unified
  20              		.thumb
  21              		.thumb_func
  22              		.fpu softvfp
  24              	LCD_Delay:
  25              	.LFB65:
  26              		.file 1 "Src/lcd.c"
   1:Src/lcd.c     **** #include "LCD.h"
   2:Src/lcd.c     **** 
   3:Src/lcd.c     **** void LCD_Delay(void){
  27              		.loc 1 3 21 view -0
  28              		.cfi_startproc
  29              		@ args = 0, pretend = 0, frame = 0
  30              		@ frame_needed = 0, uses_anonymous_args = 0
  31              		@ link register save eliminated.
   4:Src/lcd.c     ****     uint16_t i;
  32              		.loc 1 4 5 view .LVU1
   5:Src/lcd.c     **** 
   6:Src/lcd.c     ****     for (i=0; i<1000; i++)
  33              		.loc 1 6 5 view .LVU2
  34              	.LVL0:
  35              		.loc 1 6 11 is_stmt 0 view .LVU3
  36 0000 0023     		movs	r3, #0
  37              	.LVL1:
  38              	.L2:
  39              		.loc 1 6 5 discriminator 1 view .LVU4
  40 0002 B3F57A7F 		cmp	r3, #1000
  41 0006 02D2     		bcs	.L4
   7:Src/lcd.c     ****     {
   8:Src/lcd.c     **** 
   9:Src/lcd.c     ****     }
  42              		.loc 1 9 5 is_stmt 1 discriminator 3 view .LVU5
   6:Src/lcd.c     ****     {
  43              		.loc 1 6 24 is_stmt 0 discriminator 3 view .LVU6
  44 0008 0133     		adds	r3, r3, #1
  45              	.LVL2:
   6:Src/lcd.c     ****     {
  46              		.loc 1 6 24 discriminator 3 view .LVU7
  47 000a 9BB2     		uxth	r3, r3
ARM GAS  C:\Users\avpas\AppData\Local\Temp\ccj5mFQy.s 			page 2


  48              	.LVL3:
   6:Src/lcd.c     ****     {
  49              		.loc 1 6 24 discriminator 3 view .LVU8
  50 000c F9E7     		b	.L2
  51              	.L4:
  10:Src/lcd.c     **** }
  52              		.loc 1 10 1 view .LVU9
  53 000e 7047     		bx	lr
  54              		.cfi_endproc
  55              	.LFE65:
  57              		.section	.text.LCD_SetData,"ax",%progbits
  58              		.align	1
  59              		.global	LCD_SetData
  60              		.syntax unified
  61              		.thumb
  62              		.thumb_func
  63              		.fpu softvfp
  65              	LCD_SetData:
  66              	.LVL4:
  67              	.LFB66:
  11:Src/lcd.c     **** 
  12:Src/lcd.c     **** void LCD_SetData(int dt){
  68              		.loc 1 12 25 is_stmt 1 view -0
  69              		.cfi_startproc
  70              		@ args = 0, pretend = 0, frame = 0
  71              		@ frame_needed = 0, uses_anonymous_args = 0
  72              		.loc 1 12 25 is_stmt 0 view .LVU11
  73 0000 10B5     		push	{r4, lr}
  74              	.LCFI0:
  75              		.cfi_def_cfa_offset 8
  76              		.cfi_offset 4, -8
  77              		.cfi_offset 14, -4
  78 0002 0446     		mov	r4, r0
  13:Src/lcd.c     ****     if ( ((dt>>7) & 0x01) == 1) {DB7_SET();} else {DB7_RES();}
  79              		.loc 1 13 5 is_stmt 1 view .LVU12
  80              		.loc 1 13 8 is_stmt 0 view .LVU13
  81 0004 10F0800F 		tst	r0, #128
  82 0008 40D0     		beq	.L6
  83              		.loc 1 13 34 is_stmt 1 discriminator 1 view .LVU14
  84 000a 0122     		movs	r2, #1
  85 000c 4FF40041 		mov	r1, #32768
  86 0010 3848     		ldr	r0, .L23
  87              	.LVL5:
  88              		.loc 1 13 34 is_stmt 0 discriminator 1 view .LVU15
  89 0012 FFF7FEFF 		bl	HAL_GPIO_WritePin
  90              	.LVL6:
  91              		.loc 1 13 43 is_stmt 1 discriminator 1 view .LVU16
  92              	.L7:
  93              		.loc 1 13 61 discriminator 4 view .LVU17
  14:Src/lcd.c     ****     if ( ((dt>>6) & 0x01) == 1) {DB6_SET();} else {DB6_RES();}
  94              		.loc 1 14 5 discriminator 4 view .LVU18
  95              		.loc 1 14 8 is_stmt 0 discriminator 4 view .LVU19
  96 0016 14F0400F 		tst	r4, #64
  97 001a 3ED0     		beq	.L8
  98              		.loc 1 14 34 is_stmt 1 discriminator 1 view .LVU20
  99 001c 0122     		movs	r2, #1
 100 001e 0821     		movs	r1, #8
ARM GAS  C:\Users\avpas\AppData\Local\Temp\ccj5mFQy.s 			page 3


 101 0020 3548     		ldr	r0, .L23+4
 102 0022 FFF7FEFF 		bl	HAL_GPIO_WritePin
 103              	.LVL7:
 104              		.loc 1 14 43 discriminator 1 view .LVU21
 105              	.L9:
 106              		.loc 1 14 61 discriminator 4 view .LVU22
  15:Src/lcd.c     ****     if ( ((dt>>5) & 0x01) == 1) {DB5_SET();} else {DB5_RES();}
 107              		.loc 1 15 5 discriminator 4 view .LVU23
 108              		.loc 1 15 8 is_stmt 0 discriminator 4 view .LVU24
 109 0026 14F0200F 		tst	r4, #32
 110 002a 3CD0     		beq	.L10
 111              		.loc 1 15 34 is_stmt 1 discriminator 1 view .LVU25
 112 002c 0122     		movs	r2, #1
 113 002e 1021     		movs	r1, #16
 114 0030 3148     		ldr	r0, .L23+4
 115 0032 FFF7FEFF 		bl	HAL_GPIO_WritePin
 116              	.LVL8:
 117              		.loc 1 15 43 discriminator 1 view .LVU26
 118              	.L11:
 119              		.loc 1 15 61 discriminator 4 view .LVU27
  16:Src/lcd.c     ****     if ( ((dt>>4) & 0x01) == 1) {DB4_SET();} else {DB4_RES();}
 120              		.loc 1 16 5 discriminator 4 view .LVU28
 121              		.loc 1 16 8 is_stmt 0 discriminator 4 view .LVU29
 122 0036 14F0100F 		tst	r4, #16
 123 003a 3AD0     		beq	.L12
 124              		.loc 1 16 34 is_stmt 1 discriminator 1 view .LVU30
 125 003c 0122     		movs	r2, #1
 126 003e 2021     		movs	r1, #32
 127 0040 2D48     		ldr	r0, .L23+4
 128 0042 FFF7FEFF 		bl	HAL_GPIO_WritePin
 129              	.LVL9:
 130              		.loc 1 16 43 discriminator 1 view .LVU31
 131              	.L13:
 132              		.loc 1 16 61 discriminator 4 view .LVU32
  17:Src/lcd.c     ****     if ( ((dt>>3) & 0x01) == 1) {DB3_SET();} else {DB3_RES();}
 133              		.loc 1 17 5 discriminator 4 view .LVU33
 134              		.loc 1 17 8 is_stmt 0 discriminator 4 view .LVU34
 135 0046 14F0080F 		tst	r4, #8
 136 004a 38D0     		beq	.L14
 137              		.loc 1 17 34 is_stmt 1 discriminator 1 view .LVU35
 138 004c 0122     		movs	r2, #1
 139 004e 4021     		movs	r1, #64
 140 0050 2948     		ldr	r0, .L23+4
 141 0052 FFF7FEFF 		bl	HAL_GPIO_WritePin
 142              	.LVL10:
 143              		.loc 1 17 43 discriminator 1 view .LVU36
 144              	.L15:
 145              		.loc 1 17 61 discriminator 4 view .LVU37
  18:Src/lcd.c     ****     if ( ((dt>>2) & 0x01) == 1) {DB2_SET();} else {DB2_RES();}
 146              		.loc 1 18 5 discriminator 4 view .LVU38
 147              		.loc 1 18 8 is_stmt 0 discriminator 4 view .LVU39
 148 0056 14F0040F 		tst	r4, #4
 149 005a 36D0     		beq	.L16
 150              		.loc 1 18 34 is_stmt 1 discriminator 1 view .LVU40
 151 005c 0122     		movs	r2, #1
 152 005e 8021     		movs	r1, #128
 153 0060 2548     		ldr	r0, .L23+4
ARM GAS  C:\Users\avpas\AppData\Local\Temp\ccj5mFQy.s 			page 4


 154 0062 FFF7FEFF 		bl	HAL_GPIO_WritePin
 155              	.LVL11:
 156              		.loc 1 18 43 discriminator 1 view .LVU41
 157              	.L17:
 158              		.loc 1 18 61 discriminator 4 view .LVU42
  19:Src/lcd.c     ****     if ( ((dt>>1) & 0x01) == 1) {DB1_SET();} else {DB1_RES();}
 159              		.loc 1 19 5 discriminator 4 view .LVU43
 160              		.loc 1 19 8 is_stmt 0 discriminator 4 view .LVU44
 161 0066 14F0020F 		tst	r4, #2
 162 006a 34D0     		beq	.L18
 163              		.loc 1 19 34 is_stmt 1 discriminator 1 view .LVU45
 164 006c 0122     		movs	r2, #1
 165 006e 4FF48071 		mov	r1, #256
 166 0072 2148     		ldr	r0, .L23+4
 167 0074 FFF7FEFF 		bl	HAL_GPIO_WritePin
 168              	.LVL12:
 169              		.loc 1 19 43 discriminator 1 view .LVU46
 170              	.L19:
 171              		.loc 1 19 61 discriminator 4 view .LVU47
  20:Src/lcd.c     ****     if ( ((dt>>0) & 0x01) == 1) {DB0_SET();} else {DB0_RES();}
 172              		.loc 1 20 5 discriminator 4 view .LVU48
 173              		.loc 1 20 8 is_stmt 0 discriminator 4 view .LVU49
 174 0078 14F0010F 		tst	r4, #1
 175 007c 32D0     		beq	.L20
 176              		.loc 1 20 34 is_stmt 1 discriminator 1 view .LVU50
 177 007e 0122     		movs	r2, #1
 178 0080 4FF40071 		mov	r1, #512
 179 0084 1C48     		ldr	r0, .L23+4
 180 0086 FFF7FEFF 		bl	HAL_GPIO_WritePin
 181              	.LVL13:
 182              		.loc 1 20 43 discriminator 1 view .LVU51
 183              	.L5:
  21:Src/lcd.c     **** }
 184              		.loc 1 21 1 is_stmt 0 view .LVU52
 185 008a 10BD     		pop	{r4, pc}
 186              	.LVL14:
 187              	.L6:
  13:Src/lcd.c     ****     if ( ((dt>>6) & 0x01) == 1) {DB6_SET();} else {DB6_RES();}
 188              		.loc 1 13 52 is_stmt 1 discriminator 2 view .LVU53
 189 008c 0022     		movs	r2, #0
 190 008e 4FF40041 		mov	r1, #32768
 191 0092 1848     		ldr	r0, .L23
 192              	.LVL15:
  13:Src/lcd.c     ****     if ( ((dt>>6) & 0x01) == 1) {DB6_SET();} else {DB6_RES();}
 193              		.loc 1 13 52 is_stmt 0 discriminator 2 view .LVU54
 194 0094 FFF7FEFF 		bl	HAL_GPIO_WritePin
 195              	.LVL16:
 196 0098 BDE7     		b	.L7
 197              	.L8:
  14:Src/lcd.c     ****     if ( ((dt>>5) & 0x01) == 1) {DB5_SET();} else {DB5_RES();}
 198              		.loc 1 14 52 is_stmt 1 discriminator 2 view .LVU55
 199 009a 0022     		movs	r2, #0
 200 009c 0821     		movs	r1, #8
 201 009e 1648     		ldr	r0, .L23+4
 202 00a0 FFF7FEFF 		bl	HAL_GPIO_WritePin
 203              	.LVL17:
 204 00a4 BFE7     		b	.L9
ARM GAS  C:\Users\avpas\AppData\Local\Temp\ccj5mFQy.s 			page 5


 205              	.L10:
  15:Src/lcd.c     ****     if ( ((dt>>4) & 0x01) == 1) {DB4_SET();} else {DB4_RES();}
 206              		.loc 1 15 52 discriminator 2 view .LVU56
 207 00a6 0022     		movs	r2, #0
 208 00a8 1021     		movs	r1, #16
 209 00aa 1348     		ldr	r0, .L23+4
 210 00ac FFF7FEFF 		bl	HAL_GPIO_WritePin
 211              	.LVL18:
 212 00b0 C1E7     		b	.L11
 213              	.L12:
  16:Src/lcd.c     ****     if ( ((dt>>3) & 0x01) == 1) {DB3_SET();} else {DB3_RES();}
 214              		.loc 1 16 52 discriminator 2 view .LVU57
 215 00b2 0022     		movs	r2, #0
 216 00b4 2021     		movs	r1, #32
 217 00b6 1048     		ldr	r0, .L23+4
 218 00b8 FFF7FEFF 		bl	HAL_GPIO_WritePin
 219              	.LVL19:
 220 00bc C3E7     		b	.L13
 221              	.L14:
  17:Src/lcd.c     ****     if ( ((dt>>2) & 0x01) == 1) {DB2_SET();} else {DB2_RES();}
 222              		.loc 1 17 52 discriminator 2 view .LVU58
 223 00be 0022     		movs	r2, #0
 224 00c0 4021     		movs	r1, #64
 225 00c2 0D48     		ldr	r0, .L23+4
 226 00c4 FFF7FEFF 		bl	HAL_GPIO_WritePin
 227              	.LVL20:
 228 00c8 C5E7     		b	.L15
 229              	.L16:
  18:Src/lcd.c     ****     if ( ((dt>>1) & 0x01) == 1) {DB1_SET();} else {DB1_RES();}
 230              		.loc 1 18 52 discriminator 2 view .LVU59
 231 00ca 0022     		movs	r2, #0
 232 00cc 8021     		movs	r1, #128
 233 00ce 0A48     		ldr	r0, .L23+4
 234 00d0 FFF7FEFF 		bl	HAL_GPIO_WritePin
 235              	.LVL21:
 236 00d4 C7E7     		b	.L17
 237              	.L18:
  19:Src/lcd.c     ****     if ( ((dt>>0) & 0x01) == 1) {DB0_SET();} else {DB0_RES();}
 238              		.loc 1 19 52 discriminator 2 view .LVU60
 239 00d6 0022     		movs	r2, #0
 240 00d8 4FF48071 		mov	r1, #256
 241 00dc 0648     		ldr	r0, .L23+4
 242 00de FFF7FEFF 		bl	HAL_GPIO_WritePin
 243              	.LVL22:
 244 00e2 C9E7     		b	.L19
 245              	.L20:
  20:Src/lcd.c     **** }
 246              		.loc 1 20 52 discriminator 2 view .LVU61
 247 00e4 0022     		movs	r2, #0
 248 00e6 4FF40071 		mov	r1, #512
 249 00ea 0348     		ldr	r0, .L23+4
 250 00ec FFF7FEFF 		bl	HAL_GPIO_WritePin
 251              	.LVL23:
  20:Src/lcd.c     **** }
 252              		.loc 1 20 61 discriminator 2 view .LVU62
 253              		.loc 1 21 1 is_stmt 0 discriminator 2 view .LVU63
 254 00f0 CBE7     		b	.L5
ARM GAS  C:\Users\avpas\AppData\Local\Temp\ccj5mFQy.s 			page 6


 255              	.L24:
 256 00f2 00BF     		.align	2
 257              	.L23:
 258 00f4 00080140 		.word	1073809408
 259 00f8 000C0140 		.word	1073810432
 260              		.cfi_endproc
 261              	.LFE66:
 263              		.section	.text.LCD_SendCmd,"ax",%progbits
 264              		.align	1
 265              		.global	LCD_SendCmd
 266              		.syntax unified
 267              		.thumb
 268              		.thumb_func
 269              		.fpu softvfp
 271              	LCD_SendCmd:
 272              	.LVL24:
 273              	.LFB67:
  22:Src/lcd.c     **** 
  23:Src/lcd.c     **** void LCD_SendCmd(uint8_t dt){
 274              		.loc 1 23 29 is_stmt 1 view -0
 275              		.cfi_startproc
 276              		@ args = 0, pretend = 0, frame = 0
 277              		@ frame_needed = 0, uses_anonymous_args = 0
 278              		.loc 1 23 29 is_stmt 0 view .LVU65
 279 0000 38B5     		push	{r3, r4, r5, lr}
 280              	.LCFI1:
 281              		.cfi_def_cfa_offset 16
 282              		.cfi_offset 3, -16
 283              		.cfi_offset 4, -12
 284              		.cfi_offset 5, -8
 285              		.cfi_offset 14, -4
 286 0002 0546     		mov	r5, r0
  24:Src/lcd.c     ****     RS_RES();
 287              		.loc 1 24 5 is_stmt 1 view .LVU66
 288 0004 0B4C     		ldr	r4, .L27
 289 0006 0022     		movs	r2, #0
 290 0008 4FF48061 		mov	r1, #1024
 291 000c 2046     		mov	r0, r4
 292              	.LVL25:
 293              		.loc 1 24 5 is_stmt 0 view .LVU67
 294 000e FFF7FEFF 		bl	HAL_GPIO_WritePin
 295              	.LVL26:
 296              		.loc 1 24 13 is_stmt 1 view .LVU68
  25:Src/lcd.c     ****     
  26:Src/lcd.c     ****     LCD_SetData(dt);
 297              		.loc 1 26 5 view .LVU69
 298 0012 2846     		mov	r0, r5
 299 0014 FFF7FEFF 		bl	LCD_SetData
 300              	.LVL27:
  27:Src/lcd.c     **** 
  28:Src/lcd.c     ****     E_SET();
 301              		.loc 1 28 5 view .LVU70
 302 0018 0122     		movs	r2, #1
 303 001a 4FF40071 		mov	r1, #512
 304 001e 2046     		mov	r0, r4
 305 0020 FFF7FEFF 		bl	HAL_GPIO_WritePin
 306              	.LVL28:
ARM GAS  C:\Users\avpas\AppData\Local\Temp\ccj5mFQy.s 			page 7


 307              		.loc 1 28 12 view .LVU71
  29:Src/lcd.c     ****     LCD_Delay();
 308              		.loc 1 29 5 view .LVU72
  30:Src/lcd.c     ****     E_RES();
 309              		.loc 1 30 5 view .LVU73
 310 0024 0022     		movs	r2, #0
 311 0026 4FF40071 		mov	r1, #512
 312 002a 2046     		mov	r0, r4
 313 002c FFF7FEFF 		bl	HAL_GPIO_WritePin
 314              	.LVL29:
 315              		.loc 1 30 12 view .LVU74
  31:Src/lcd.c     **** }
 316              		.loc 1 31 1 is_stmt 0 view .LVU75
 317 0030 38BD     		pop	{r3, r4, r5, pc}
 318              	.L28:
 319 0032 00BF     		.align	2
 320              	.L27:
 321 0034 00080140 		.word	1073809408
 322              		.cfi_endproc
 323              	.LFE67:
 325              		.section	.text.LCD_SendData,"ax",%progbits
 326              		.align	1
 327              		.global	LCD_SendData
 328              		.syntax unified
 329              		.thumb
 330              		.thumb_func
 331              		.fpu softvfp
 333              	LCD_SendData:
 334              	.LVL30:
 335              	.LFB68:
  32:Src/lcd.c     **** 
  33:Src/lcd.c     **** void LCD_SendData(uint8_t dt){
 336              		.loc 1 33 30 is_stmt 1 view -0
 337              		.cfi_startproc
 338              		@ args = 0, pretend = 0, frame = 0
 339              		@ frame_needed = 0, uses_anonymous_args = 0
 340              		.loc 1 33 30 is_stmt 0 view .LVU77
 341 0000 38B5     		push	{r3, r4, r5, lr}
 342              	.LCFI2:
 343              		.cfi_def_cfa_offset 16
 344              		.cfi_offset 3, -16
 345              		.cfi_offset 4, -12
 346              		.cfi_offset 5, -8
 347              		.cfi_offset 14, -4
 348 0002 0546     		mov	r5, r0
  34:Src/lcd.c     ****     RS_SET();
 349              		.loc 1 34 5 is_stmt 1 view .LVU78
 350 0004 0C4C     		ldr	r4, .L31
 351 0006 0122     		movs	r2, #1
 352 0008 4FF48061 		mov	r1, #1024
 353 000c 2046     		mov	r0, r4
 354              	.LVL31:
 355              		.loc 1 34 5 is_stmt 0 view .LVU79
 356 000e FFF7FEFF 		bl	HAL_GPIO_WritePin
 357              	.LVL32:
 358              		.loc 1 34 13 is_stmt 1 view .LVU80
  35:Src/lcd.c     ****     
ARM GAS  C:\Users\avpas\AppData\Local\Temp\ccj5mFQy.s 			page 8


  36:Src/lcd.c     ****     LCD_SetData(dt);
 359              		.loc 1 36 5 view .LVU81
 360 0012 2846     		mov	r0, r5
 361 0014 FFF7FEFF 		bl	LCD_SetData
 362              	.LVL33:
  37:Src/lcd.c     ****     
  38:Src/lcd.c     ****     E_SET();
 363              		.loc 1 38 5 view .LVU82
 364 0018 0122     		movs	r2, #1
 365 001a 4FF40071 		mov	r1, #512
 366 001e 2046     		mov	r0, r4
 367 0020 FFF7FEFF 		bl	HAL_GPIO_WritePin
 368              	.LVL34:
 369              		.loc 1 38 12 view .LVU83
  39:Src/lcd.c     ****     LCD_Delay();
 370              		.loc 1 39 5 view .LVU84
  40:Src/lcd.c     ****     HAL_Delay(1);
 371              		.loc 1 40 5 view .LVU85
 372 0024 0120     		movs	r0, #1
 373 0026 FFF7FEFF 		bl	HAL_Delay
 374              	.LVL35:
  41:Src/lcd.c     ****     E_RES();
 375              		.loc 1 41 5 view .LVU86
 376 002a 0022     		movs	r2, #0
 377 002c 4FF40071 		mov	r1, #512
 378 0030 2046     		mov	r0, r4
 379 0032 FFF7FEFF 		bl	HAL_GPIO_WritePin
 380              	.LVL36:
 381              		.loc 1 41 12 view .LVU87
  42:Src/lcd.c     **** }
 382              		.loc 1 42 1 is_stmt 0 view .LVU88
 383 0036 38BD     		pop	{r3, r4, r5, pc}
 384              	.L32:
 385              		.align	2
 386              	.L31:
 387 0038 00080140 		.word	1073809408
 388              		.cfi_endproc
 389              	.LFE68:
 391              		.section	.text.LCD_Init,"ax",%progbits
 392              		.align	1
 393              		.global	LCD_Init
 394              		.syntax unified
 395              		.thumb
 396              		.thumb_func
 397              		.fpu softvfp
 399              	LCD_Init:
 400              	.LFB69:
  43:Src/lcd.c     **** 
  44:Src/lcd.c     **** void LCD_Init(void){
 401              		.loc 1 44 20 is_stmt 1 view -0
 402              		.cfi_startproc
 403              		@ args = 0, pretend = 0, frame = 0
 404              		@ frame_needed = 0, uses_anonymous_args = 0
 405 0000 08B5     		push	{r3, lr}
 406              	.LCFI3:
 407              		.cfi_def_cfa_offset 8
 408              		.cfi_offset 3, -8
ARM GAS  C:\Users\avpas\AppData\Local\Temp\ccj5mFQy.s 			page 9


 409              		.cfi_offset 14, -4
  45:Src/lcd.c     ****     LCD_SendCmd(0x38);
 410              		.loc 1 45 5 view .LVU90
 411 0002 3820     		movs	r0, #56
 412 0004 FFF7FEFF 		bl	LCD_SendCmd
 413              	.LVL37:
  46:Src/lcd.c     ****     HAL_Delay(1);
 414              		.loc 1 46 5 view .LVU91
 415 0008 0120     		movs	r0, #1
 416 000a FFF7FEFF 		bl	HAL_Delay
 417              	.LVL38:
  47:Src/lcd.c     ****     LCD_SendCmd (0x0C);
 418              		.loc 1 47 5 view .LVU92
 419 000e 0C20     		movs	r0, #12
 420 0010 FFF7FEFF 		bl	LCD_SendCmd
 421              	.LVL39:
  48:Src/lcd.c     ****     HAL_Delay(1);
 422              		.loc 1 48 5 view .LVU93
 423 0014 0120     		movs	r0, #1
 424 0016 FFF7FEFF 		bl	HAL_Delay
 425              	.LVL40:
  49:Src/lcd.c     ****     LCD_SendCmd(0x01);
 426              		.loc 1 49 5 view .LVU94
 427 001a 0120     		movs	r0, #1
 428 001c FFF7FEFF 		bl	LCD_SendCmd
 429              	.LVL41:
  50:Src/lcd.c     ****     HAL_Delay(2);
 430              		.loc 1 50 5 view .LVU95
 431 0020 0220     		movs	r0, #2
 432 0022 FFF7FEFF 		bl	HAL_Delay
 433              	.LVL42:
  51:Src/lcd.c     ****     LCD_SendCmd(0x06);
 434              		.loc 1 51 5 view .LVU96
 435 0026 0620     		movs	r0, #6
 436 0028 FFF7FEFF 		bl	LCD_SendCmd
 437              	.LVL43:
  52:Src/lcd.c     ****     HAL_Delay(1);
 438              		.loc 1 52 5 view .LVU97
 439 002c 0120     		movs	r0, #1
 440 002e FFF7FEFF 		bl	HAL_Delay
 441              	.LVL44:
  53:Src/lcd.c     ****     LCD_SendCmd(0x02);
 442              		.loc 1 53 5 view .LVU98
 443 0032 0220     		movs	r0, #2
 444 0034 FFF7FEFF 		bl	LCD_SendCmd
 445              	.LVL45:
  54:Src/lcd.c     ****     HAL_Delay(2);
 446              		.loc 1 54 5 view .LVU99
 447 0038 0220     		movs	r0, #2
 448 003a FFF7FEFF 		bl	HAL_Delay
 449              	.LVL46:
  55:Src/lcd.c     **** }
 450              		.loc 1 55 1 is_stmt 0 view .LVU100
 451 003e 08BD     		pop	{r3, pc}
 452              		.cfi_endproc
 453              	.LFE69:
 455              		.section	.text.LCD_SendString,"ax",%progbits
ARM GAS  C:\Users\avpas\AppData\Local\Temp\ccj5mFQy.s 			page 10


 456              		.align	1
 457              		.global	LCD_SendString
 458              		.syntax unified
 459              		.thumb
 460              		.thumb_func
 461              		.fpu softvfp
 463              	LCD_SendString:
 464              	.LVL47:
 465              	.LFB70:
  56:Src/lcd.c     **** 
  57:Src/lcd.c     **** void LCD_SendString(uint8_t StrNum, char* str){
 466              		.loc 1 57 47 is_stmt 1 view -0
 467              		.cfi_startproc
 468              		@ args = 0, pretend = 0, frame = 0
 469              		@ frame_needed = 0, uses_anonymous_args = 0
 470              		.loc 1 57 47 is_stmt 0 view .LVU102
 471 0000 38B5     		push	{r3, r4, r5, lr}
 472              	.LCFI4:
 473              		.cfi_def_cfa_offset 16
 474              		.cfi_offset 3, -16
 475              		.cfi_offset 4, -12
 476              		.cfi_offset 5, -8
 477              		.cfi_offset 14, -4
 478 0002 0D46     		mov	r5, r1
  58:Src/lcd.c     ****     
  59:Src/lcd.c     ****     uint8_t i=0;
 479              		.loc 1 59 5 is_stmt 1 view .LVU103
 480              	.LVL48:
  60:Src/lcd.c     **** 
  61:Src/lcd.c     ****     if(StrNum == 0){
 481              		.loc 1 61 5 view .LVU104
 482              		.loc 1 61 7 is_stmt 0 view .LVU105
 483 0004 80B9     		cbnz	r0, .L36
  62:Src/lcd.c     ****         LCD_SendCmd(0x80);
 484              		.loc 1 62 9 is_stmt 1 view .LVU106
 485 0006 8020     		movs	r0, #128
 486              	.LVL49:
 487              		.loc 1 62 9 is_stmt 0 view .LVU107
 488 0008 FFF7FEFF 		bl	LCD_SendCmd
 489              	.LVL50:
 490              	.L37:
  63:Src/lcd.c     ****     }else{
  64:Src/lcd.c     ****         LCD_SendCmd(0xC0);
  65:Src/lcd.c     ****     }
  66:Src/lcd.c     ****     HAL_Delay(1);
 491              		.loc 1 66 5 is_stmt 1 view .LVU108
 492 000c 0120     		movs	r0, #1
 493 000e FFF7FEFF 		bl	HAL_Delay
 494              	.LVL51:
  67:Src/lcd.c     ****     
  68:Src/lcd.c     ****     while(str[i] != 0){
 495              		.loc 1 68 5 view .LVU109
  59:Src/lcd.c     **** 
 496              		.loc 1 59 13 is_stmt 0 view .LVU110
 497 0012 0024     		movs	r4, #0
 498              	.LVL52:
 499              	.L38:
ARM GAS  C:\Users\avpas\AppData\Local\Temp\ccj5mFQy.s 			page 11


 500              		.loc 1 68 14 view .LVU111
 501 0014 285D     		ldrb	r0, [r5, r4]	@ zero_extendqisi2
 502              		.loc 1 68 10 view .LVU112
 503 0016 58B1     		cbz	r0, .L41
  69:Src/lcd.c     ****         LCD_SendData(str[i]);
 504              		.loc 1 69 9 is_stmt 1 view .LVU113
 505 0018 FFF7FEFF 		bl	LCD_SendData
 506              	.LVL53:
  70:Src/lcd.c     ****         //LCD_Delay();
  71:Src/lcd.c     ****         HAL_Delay(10);
 507              		.loc 1 71 9 view .LVU114
 508 001c 0A20     		movs	r0, #10
 509 001e FFF7FEFF 		bl	HAL_Delay
 510              	.LVL54:
  72:Src/lcd.c     ****         i++;
 511              		.loc 1 72 9 view .LVU115
 512              		.loc 1 72 10 is_stmt 0 view .LVU116
 513 0022 0134     		adds	r4, r4, #1
 514              	.LVL55:
 515              		.loc 1 72 10 view .LVU117
 516 0024 E4B2     		uxtb	r4, r4
 517              	.LVL56:
 518              		.loc 1 72 10 view .LVU118
 519 0026 F5E7     		b	.L38
 520              	.LVL57:
 521              	.L36:
  64:Src/lcd.c     ****     }
 522              		.loc 1 64 9 is_stmt 1 view .LVU119
 523 0028 C020     		movs	r0, #192
 524              	.LVL58:
  64:Src/lcd.c     ****     }
 525              		.loc 1 64 9 is_stmt 0 view .LVU120
 526 002a FFF7FEFF 		bl	LCD_SendCmd
 527              	.LVL59:
  64:Src/lcd.c     ****     }
 528              		.loc 1 64 9 view .LVU121
 529 002e EDE7     		b	.L37
 530              	.LVL60:
 531              	.L41:
  73:Src/lcd.c     ****     }
  74:Src/lcd.c     **** }...
 532              		.loc 1 74 1 view .LVU122
 533 0030 38BD     		pop	{r3, r4, r5, pc}
 534              		.loc 1 74 1 view .LVU123
 535              		.cfi_endproc
 536              	.LFE70:
 538              		.text
 539              	.Letext0:
 540              		.file 2 "c:\\software\\embededgcc\\arm-gcc\\arm-none-eabi\\include\\machine\\_default_types.h"
 541              		.file 3 "c:\\software\\embededgcc\\arm-gcc\\arm-none-eabi\\include\\sys\\_stdint.h"
 542              		.file 4 "Drivers/CMSIS/Include/core_cm3.h"
 543              		.file 5 "Drivers/CMSIS/Device/ST/STM32F1xx/Include/system_stm32f1xx.h"
 544              		.file 6 "Drivers/CMSIS/Device/ST/STM32F1xx/Include/stm32f103xb.h"
 545              		.file 7 "Drivers/STM32F1xx_HAL_Driver/Inc/stm32f1xx_hal_gpio.h"
 546              		.file 8 "Drivers/STM32F1xx_HAL_Driver/Inc/stm32f1xx_hal.h"
ARM GAS  C:\Users\avpas\AppData\Local\Temp\ccj5mFQy.s 			page 12


DEFINED SYMBOLS
                            *ABS*:0000000000000000 lcd.c
C:\Users\avpas\AppData\Local\Temp\ccj5mFQy.s:16     .text.LCD_Delay:0000000000000000 $t
C:\Users\avpas\AppData\Local\Temp\ccj5mFQy.s:24     .text.LCD_Delay:0000000000000000 LCD_Delay
C:\Users\avpas\AppData\Local\Temp\ccj5mFQy.s:58     .text.LCD_SetData:0000000000000000 $t
C:\Users\avpas\AppData\Local\Temp\ccj5mFQy.s:65     .text.LCD_SetData:0000000000000000 LCD_SetData
C:\Users\avpas\AppData\Local\Temp\ccj5mFQy.s:258    .text.LCD_SetData:00000000000000f4 $d
C:\Users\avpas\AppData\Local\Temp\ccj5mFQy.s:264    .text.LCD_SendCmd:0000000000000000 $t
C:\Users\avpas\AppData\Local\Temp\ccj5mFQy.s:271    .text.LCD_SendCmd:0000000000000000 LCD_SendCmd
C:\Users\avpas\AppData\Local\Temp\ccj5mFQy.s:321    .text.LCD_SendCmd:0000000000000034 $d
C:\Users\avpas\AppData\Local\Temp\ccj5mFQy.s:326    .text.LCD_SendData:0000000000000000 $t
C:\Users\avpas\AppData\Local\Temp\ccj5mFQy.s:333    .text.LCD_SendData:0000000000000000 LCD_SendData
C:\Users\avpas\AppData\Local\Temp\ccj5mFQy.s:387    .text.LCD_SendData:0000000000000038 $d
C:\Users\avpas\AppData\Local\Temp\ccj5mFQy.s:392    .text.LCD_Init:0000000000000000 $t
C:\Users\avpas\AppData\Local\Temp\ccj5mFQy.s:399    .text.LCD_Init:0000000000000000 LCD_Init
C:\Users\avpas\AppData\Local\Temp\ccj5mFQy.s:456    .text.LCD_SendString:0000000000000000 $t
C:\Users\avpas\AppData\Local\Temp\ccj5mFQy.s:463    .text.LCD_SendString:0000000000000000 LCD_SendString

UNDEFINED SYMBOLS
HAL_GPIO_WritePin
HAL_Delay
